target datalayout = "e-m:e-p270:32:32-p271:32:32-p272:64:64-i64:64-i128:128-f80:128-n8:16:32:64-S128"
target triple = "x86_64-pc-linux-gnu"

%struct._zend_refcounted_h = type { i32, %union.anon.4 }
%union.anon.4 = type { i32 }
%struct._zval_struct = type { %union._zend_value, %union.anon.0, %union.anon.3 }
%union._zend_value = type { i64 }
%union.anon.0 = type { i32 }
%union.anon.3 = type { i32 }
%struct._zend_ast_zval = type { i16, i16, %struct._zval_struct }
%struct._zend_string = type { %struct._zend_refcounted_h, i64, i64, [1 x i8] }
%struct._zend_ast = type { i16, i16, i32, [1 x ptr] }
%struct.smart_str = type { ptr, i64 }

@.str.175 = private unnamed_addr constant [11 x i8] c"namespace\\\00", align 1

; Function Attrs: nounwind uwtable
define internal void @zend_ast_export_ns_name(ptr noundef %0, ptr noundef %1, i32 noundef %2, i32 noundef %3) #0 {
  %5 = alloca ptr, align 8
  %6 = alloca i64, align 8
  %7 = alloca i8, align 1
  %8 = alloca ptr, align 8
  %9 = alloca ptr, align 8
  %10 = alloca i64, align 8
  %11 = alloca i8, align 1
  %12 = alloca i64, align 8
  %13 = alloca ptr, align 8
  %14 = alloca ptr, align 8
  %15 = alloca i8, align 1
  %16 = alloca ptr, align 8
  %17 = alloca i64, align 8
  %18 = alloca i8, align 1
  %19 = alloca ptr, align 8
  %20 = alloca i8, align 1
  %21 = alloca i8, align 1
  %22 = alloca i64, align 8
  %23 = alloca ptr, align 8
  %24 = alloca ptr, align 8
  %25 = alloca ptr, align 8
  %26 = alloca i8, align 1
  %27 = alloca ptr, align 8
  %28 = alloca i64, align 8
  %29 = alloca i8, align 1
  %30 = alloca ptr, align 8
  %31 = alloca ptr, align 8
  %32 = alloca i64, align 8
  %33 = alloca i8, align 1
  %34 = alloca i64, align 8
  %35 = alloca ptr, align 8
  %36 = alloca ptr, align 8
  %37 = alloca ptr, align 8
  %38 = alloca ptr, align 8
  %39 = alloca ptr, align 8
  %40 = alloca ptr, align 8
  %41 = alloca i32, align 4
  %42 = alloca i32, align 4
  %43 = alloca ptr, align 8
  store ptr %0, ptr %39, align 8
  store ptr %1, ptr %40, align 8
  store i32 %2, ptr %41, align 4
  store i32 %3, ptr %42, align 4
  %44 = load ptr, ptr %40, align 8
  %45 = getelementptr inbounds %struct._zend_ast, ptr %44, i32 0, i32 0
  %46 = load i16, ptr %45, align 8
  %47 = zext i16 %46 to i32
  %48 = icmp eq i32 %47, 64
  br i1 %48, label %49, label %246

49:                                               ; preds = %4
  %50 = load ptr, ptr %40, align 8
  store ptr %50, ptr %38, align 8
  %51 = load ptr, ptr %38, align 8
  %52 = load i16, ptr %51, align 8
  %53 = zext i16 %52 to i32
  %54 = icmp eq i32 %53, 64
  call void @llvm.assume(i1 %54)
  %55 = load ptr, ptr %38, align 8
  %56 = getelementptr inbounds %struct._zend_ast_zval, ptr %55, i32 0, i32 2
  store ptr %56, ptr %43, align 8
  %57 = load ptr, ptr %43, align 8
  store ptr %57, ptr %37, align 8
  %58 = load ptr, ptr %37, align 8
  %59 = getelementptr inbounds %struct._zval_struct, ptr %58, i32 0, i32 1
  %60 = load i8, ptr %59, align 8
  %61 = zext i8 %60 to i32
  %62 = icmp eq i32 %61, 6
  br i1 %62, label %63, label %245

63:                                               ; preds = %49
  %64 = load ptr, ptr %40, align 8
  %65 = getelementptr inbounds %struct._zend_ast, ptr %64, i32 0, i32 1
  %66 = load i16, ptr %65, align 2
  %67 = zext i16 %66 to i32
  %68 = icmp eq i32 %67, 0
  br i1 %68, label %69, label %118

69:                                               ; preds = %63
  %70 = load ptr, ptr %39, align 8
  store ptr %70, ptr %25, align 8
  store i8 92, ptr %26, align 1
  %71 = load ptr, ptr %25, align 8
  %72 = load i8, ptr %26, align 1
  store ptr %71, ptr %19, align 8
  store i8 %72, ptr %20, align 1
  store i8 0, ptr %21, align 1
  %73 = load ptr, ptr %19, align 8
  %74 = load i8, ptr %21, align 1
  %75 = trunc i8 %74 to i1
  store ptr %73, ptr %16, align 8
  store i64 1, ptr %17, align 8
  %76 = zext i1 %75 to i8
  store i8 %76, ptr %18, align 1
  %77 = load ptr, ptr %16, align 8
  %78 = load ptr, ptr %77, align 8
  %79 = icmp ne ptr %78, null
  %80 = xor i1 %79, true
  br i1 %80, label %81, label %82

81:                                               ; preds = %69
  br label %95

82:                                               ; preds = %69
  %83 = load ptr, ptr %16, align 8
  %84 = load ptr, ptr %83, align 8
  %85 = getelementptr inbounds %struct._zend_string, ptr %84, i32 0, i32 2
  %86 = load i64, ptr %85, align 8
  %87 = load i64, ptr %17, align 8
  %88 = add i64 %87, %86
  store i64 %88, ptr %17, align 8
  %89 = load i64, ptr %17, align 8
  %90 = load ptr, ptr %16, align 8
  %91 = getelementptr inbounds %struct.smart_str, ptr %90, i32 0, i32 1
  %92 = load i64, ptr %91, align 8
  %93 = icmp uge i64 %89, %92
  br i1 %93, label %94, label %105

94:                                               ; preds = %82
  br label %95

95:                                               ; preds = %94, %81
  %96 = load i8, ptr %18, align 1
  %97 = trunc i8 %96 to i1
  br i1 %97, label %98, label %101

98:                                               ; preds = %95
  %99 = load ptr, ptr %16, align 8
  %100 = load i64, ptr %17, align 8
  call void @smart_str_realloc(ptr noundef %99, i64 noundef %100) #10
  br label %104

101:                                              ; preds = %95
  %102 = load ptr, ptr %16, align 8
  %103 = load i64, ptr %17, align 8
  call void @smart_str_erealloc(ptr noundef %102, i64 noundef %103) #10
  br label %104

104:                                              ; preds = %101, %98
  br label %105

105:                                              ; preds = %104, %82
  %106 = load i64, ptr %17, align 8
  store i64 %106, ptr %22, align 8
  %107 = load i8, ptr %20, align 1
  %108 = load ptr, ptr %19, align 8
  %109 = load ptr, ptr %108, align 8
  %110 = getelementptr inbounds %struct._zend_string, ptr %109, i32 0, i32 3
  %111 = load i64, ptr %22, align 8
  %112 = sub i64 %111, 1
  %113 = getelementptr inbounds [1 x i8], ptr %110, i64 0, i64 %112
  store i8 %107, ptr %113, align 1
  %114 = load i64, ptr %22, align 8
  %115 = load ptr, ptr %19, align 8
  %116 = load ptr, ptr %115, align 8
  %117 = getelementptr inbounds %struct._zend_string, ptr %116, i32 0, i32 2
  store i64 %114, ptr %117, align 8
  br label %180

118:                                              ; preds = %63
  %119 = load ptr, ptr %40, align 8
  %120 = getelementptr inbounds %struct._zend_ast, ptr %119, i32 0, i32 1
  %121 = load i16, ptr %120, align 2
  %122 = zext i16 %121 to i32
  %123 = icmp eq i32 %122, 2
  br i1 %123, label %124, label %179

124:                                              ; preds = %118
  %125 = load ptr, ptr %39, align 8
  store ptr %125, ptr %35, align 8
  store ptr @.str.175, ptr %36, align 8
  %126 = load ptr, ptr %35, align 8
  %127 = load ptr, ptr %36, align 8
  %128 = load ptr, ptr %36, align 8
  %129 = call i64 @strlen(ptr noundef %128) #14
  store ptr %126, ptr %30, align 8
  store ptr %127, ptr %31, align 8
  store i64 %129, ptr %32, align 8
  store i8 0, ptr %33, align 1
  %130 = load ptr, ptr %30, align 8
  %131 = load i64, ptr %32, align 8
  %132 = load i8, ptr %33, align 1
  %133 = trunc i8 %132 to i1
  store ptr %130, ptr %27, align 8
  store i64 %131, ptr %28, align 8
  %134 = zext i1 %133 to i8
  store i8 %134, ptr %29, align 1
  %135 = load ptr, ptr %27, align 8
  %136 = load ptr, ptr %135, align 8
  %137 = icmp ne ptr %136, null
  %138 = xor i1 %137, true
  br i1 %138, label %139, label %140

139:                                              ; preds = %124
  br label %153

140:                                              ; preds = %124
  %141 = load ptr, ptr %27, align 8
  %142 = load ptr, ptr %141, align 8
  %143 = getelementptr inbounds %struct._zend_string, ptr %142, i32 0, i32 2
  %144 = load i64, ptr %143, align 8
  %145 = load i64, ptr %28, align 8
  %146 = add i64 %145, %144
  store i64 %146, ptr %28, align 8
  %147 = load i64, ptr %28, align 8
  %148 = load ptr, ptr %27, align 8
  %149 = getelementptr inbounds %struct.smart_str, ptr %148, i32 0, i32 1
  %150 = load i64, ptr %149, align 8
  %151 = icmp uge i64 %147, %150
  br i1 %151, label %152, label %163

152:                                              ; preds = %140
  br label %153

153:                                              ; preds = %152, %139
  %154 = load i8, ptr %29, align 1
  %155 = trunc i8 %154 to i1
  br i1 %155, label %156, label %159

156:                                              ; preds = %153
  %157 = load ptr, ptr %27, align 8
  %158 = load i64, ptr %28, align 8
  call void @smart_str_realloc(ptr noundef %157, i64 noundef %158) #10
  br label %162

159:                                              ; preds = %153
  %160 = load ptr, ptr %27, align 8
  %161 = load i64, ptr %28, align 8
  call void @smart_str_erealloc(ptr noundef %160, i64 noundef %161) #10
  br label %162

162:                                              ; preds = %159, %156
  br label %163

163:                                              ; preds = %162, %140
  %164 = load i64, ptr %28, align 8
  store i64 %164, ptr %34, align 8
  %165 = load ptr, ptr %30, align 8
  %166 = load ptr, ptr %165, align 8
  %167 = getelementptr inbounds %struct._zend_string, ptr %166, i32 0, i32 3
  %168 = load ptr, ptr %30, align 8
  %169 = load ptr, ptr %168, align 8
  %170 = getelementptr inbounds %struct._zend_string, ptr %169, i32 0, i32 2
  %171 = load i64, ptr %170, align 8
  %172 = getelementptr inbounds i8, ptr %167, i64 %171
  %173 = load ptr, ptr %31, align 8
  %174 = load i64, ptr %32, align 8
  call void @llvm.memcpy.p0.p0.i64(ptr align 1 %172, ptr align 1 %173, i64 %174, i1 false)
  %175 = load i64, ptr %34, align 8
  %176 = load ptr, ptr %30, align 8
  %177 = load ptr, ptr %176, align 8
  %178 = getelementptr inbounds %struct._zend_string, ptr %177, i32 0, i32 2
  store i64 %175, ptr %178, align 8
  br label %179

179:                                              ; preds = %163, %118
  br label %180

180:                                              ; preds = %179, %105
  %181 = load ptr, ptr %39, align 8
  %182 = load ptr, ptr %43, align 8
  %183 = getelementptr inbounds %struct._zval_struct, ptr %182, i32 0, i32 0
  %184 = load ptr, ptr %183, align 8
  store ptr %181, ptr %23, align 8
  store ptr %184, ptr %24, align 8
  %185 = load ptr, ptr %23, align 8
  %186 = load ptr, ptr %24, align 8
  store ptr %185, ptr %13, align 8
  store ptr %186, ptr %14, align 8
  store i8 0, ptr %15, align 1
  %187 = load ptr, ptr %13, align 8
  %188 = load ptr, ptr %14, align 8
  %189 = getelementptr inbounds %struct._zend_string, ptr %188, i32 0, i32 3
  %190 = load ptr, ptr %14, align 8
  %191 = getelementptr inbounds %struct._zend_string, ptr %190, i32 0, i32 2
  %192 = load i64, ptr %191, align 8
  %193 = load i8, ptr %15, align 1
  %194 = trunc i8 %193 to i1
  store ptr %187, ptr %8, align 8
  store ptr %189, ptr %9, align 8
  store i64 %192, ptr %10, align 8
  %195 = zext i1 %194 to i8
  store i8 %195, ptr %11, align 1
  %196 = load ptr, ptr %8, align 8
  %197 = load i64, ptr %10, align 8
  %198 = load i8, ptr %11, align 1
  %199 = trunc i8 %198 to i1
  store ptr %196, ptr %5, align 8
  store i64 %197, ptr %6, align 8
  %200 = zext i1 %199 to i8
  store i8 %200, ptr %7, align 1
  %201 = load ptr, ptr %5, align 8
  %202 = load ptr, ptr %201, align 8
  %203 = icmp ne ptr %202, null
  %204 = xor i1 %203, true
  br i1 %204, label %205, label %206

205:                                              ; preds = %180
  br label %219

206:                                              ; preds = %180
  %207 = load ptr, ptr %5, align 8
  %208 = load ptr, ptr %207, align 8
  %209 = getelementptr inbounds %struct._zend_string, ptr %208, i32 0, i32 2
  %210 = load i64, ptr %209, align 8
  %211 = load i64, ptr %6, align 8
  %212 = add i64 %211, %210
  store i64 %212, ptr %6, align 8
  %213 = load i64, ptr %6, align 8
  %214 = load ptr, ptr %5, align 8
  %215 = getelementptr inbounds %struct.smart_str, ptr %214, i32 0, i32 1
  %216 = load i64, ptr %215, align 8
  %217 = icmp uge i64 %213, %216
  br i1 %217, label %218, label %229

218:                                              ; preds = %206
  br label %219

219:                                              ; preds = %218, %205
  %220 = load i8, ptr %7, align 1
  %221 = trunc i8 %220 to i1
  br i1 %221, label %222, label %225

222:                                              ; preds = %219
  %223 = load ptr, ptr %5, align 8
  %224 = load i64, ptr %6, align 8
  call void @smart_str_realloc(ptr noundef %223, i64 noundef %224) #10
  br label %228

225:                                              ; preds = %219
  %226 = load ptr, ptr %5, align 8
  %227 = load i64, ptr %6, align 8
  call void @smart_str_erealloc(ptr noundef %226, i64 noundef %227) #10
  br label %228

228:                                              ; preds = %225, %222
  br label %229

229:                                              ; preds = %228, %206
  %230 = load i64, ptr %6, align 8
  store i64 %230, ptr %12, align 8
  %231 = load ptr, ptr %8, align 8
  %232 = load ptr, ptr %231, align 8
  %233 = getelementptr inbounds %struct._zend_string, ptr %232, i32 0, i32 3
  %234 = load ptr, ptr %8, align 8
  %235 = load ptr, ptr %234, align 8
  %236 = getelementptr inbounds %struct._zend_string, ptr %235, i32 0, i32 2
  %237 = load i64, ptr %236, align 8
  %238 = getelementptr inbounds i8, ptr %233, i64 %237
  %239 = load ptr, ptr %9, align 8
  %240 = load i64, ptr %10, align 8
  call void @llvm.memcpy.p0.p0.i64(ptr align 1 %238, ptr align 1 %239, i64 %240, i1 false)
  %241 = load i64, ptr %12, align 8
  %242 = load ptr, ptr %8, align 8
  %243 = load ptr, ptr %242, align 8
  %244 = getelementptr inbounds %struct._zend_string, ptr %243, i32 0, i32 2
  store i64 %241, ptr %244, align 8
  br label %251

245:                                              ; preds = %49
  br label %246

246:                                              ; preds = %245, %4
  %247 = load ptr, ptr %39, align 8
  %248 = load ptr, ptr %40, align 8
  %249 = load i32, ptr %41, align 4
  %250 = load i32, ptr %42, align 4
  call void @zend_ast_export_ex(ptr noundef %247, ptr noundef %248, i32 noundef %249, i32 noundef %250)
  br label %251

251:                                              ; preds = %246, %229
  ret void
}