; Function Attrs: nounwind uwtable
define internal fastcc void @zend_ast_export_ns_name(ptr noundef %0, ptr noundef %1, i32 noundef %2) unnamed_addr #0 {
  %4 = load i16, ptr %1, align 8
  %5 = icmp eq i16 %4, 64
  br i1 %5, label %6, label %64

6:                                                ; preds = %3
  %7 = getelementptr inbounds i8, ptr %1, i64 8
  %8 = getelementptr inbounds i8, ptr %1, i64 16
  %9 = load i8, ptr %8, align 8
  %10 = icmp eq i8 %9, 6
  br i1 %10, label %11, label %64

11:                                               ; preds = %6
  %12 = getelementptr inbounds i8, ptr %1, i64 2
  %13 = load i16, ptr %12, align 2
  switch i16 %13, label %44 [
    i16 0, label %14
    i16 2, label %28
  ]

14:                                               ; preds = %11
  %15 = load ptr, ptr %0, align 8
  %.not96 = icmp eq ptr %15, null
  br i1 %.not96, label %22, label %16

16:                                               ; preds = %14
  %17 = getelementptr inbounds i8, ptr %15, i64 16
  %18 = load i64, ptr %17, align 8
  %19 = add i64 %18, 1
  %20 = getelementptr inbounds i8, ptr %0, i64 8
  %21 = load i64, ptr %20, align 8
  %.not97 = icmp ult i64 %19, %21
  br i1 %.not97, label %23, label %22

22:                                               ; preds = %14, %16
  %.084 = phi i64 [ 1, %14 ], [ %19, %16 ]
  tail call void @smart_str_erealloc(ptr noundef nonnull %0, i64 noundef %.084) #14
  %.pre101 = load ptr, ptr %0, align 8
  br label %23

23:                                               ; preds = %22, %16
  %24 = phi ptr [ %.pre101, %22 ], [ %15, %16 ]
  %.185 = phi i64 [ %.084, %22 ], [ %19, %16 ]
  %25 = getelementptr inbounds i8, ptr %24, i64 24
  %26 = add i64 %.185, -1
  %27 = getelementptr inbounds [1 x i8], ptr %25, i64 0, i64 %26
  store i8 92, ptr %27, align 1
  br label %.sink.split

28:                                               ; preds = %11
  %29 = load ptr, ptr %0, align 8
  %.not = icmp eq ptr %29, null
  br i1 %.not, label %36, label %30

30:                                               ; preds = %28
  %31 = getelementptr inbounds i8, ptr %29, i64 16
  %32 = load i64, ptr %31, align 8
  %33 = add i64 %32, 10
  %34 = getelementptr inbounds i8, ptr %0, i64 8
  %35 = load i64, ptr %34, align 8
  %.not95 = icmp ult i64 %33, %35
  br i1 %.not95, label %37, label %36

36:                                               ; preds = %28, %30
  %.086 = phi i64 [ 10, %28 ], [ %33, %30 ]
  tail call void @smart_str_erealloc(ptr noundef nonnull %0, i64 noundef %.086) #14
  %.pre = load ptr, ptr %0, align 8
  %.phi.trans.insert = getelementptr inbounds i8, ptr %.pre, i64 16
  %.pre100 = load i64, ptr %.phi.trans.insert, align 8
  br label %37

37:                                               ; preds = %36, %30
  %38 = phi i64 [ %.pre100, %36 ], [ %32, %30 ]
  %39 = phi ptr [ %.pre, %36 ], [ %29, %30 ]
  %.187 = phi i64 [ %.086, %36 ], [ %33, %30 ]
  %40 = getelementptr inbounds i8, ptr %39, i64 24
  %41 = getelementptr inbounds i8, ptr %40, i64 %38
  tail call void @llvm.memcpy.p0.p0.i64(ptr noundef nonnull align 1 dereferenceable(10) %41, ptr noundef nonnull align 1 dereferenceable(10) @.str.175, i64 10, i1 false)
  br label %.sink.split

.sink.split:                                      ; preds = %23, %37
  %.187.sink = phi i64 [ %.187, %37 ], [ %.185, %23 ]
  %42 = load ptr, ptr %0, align 8
  %43 = getelementptr inbounds i8, ptr %42, i64 16
  store i64 %.187.sink, ptr %43, align 8
  br label %44

44:                                               ; preds = %.sink.split, %11
  %45 = load ptr, ptr %7, align 8
  %46 = getelementptr inbounds i8, ptr %45, i64 24
  %47 = getelementptr inbounds i8, ptr %45, i64 16
  %48 = load i64, ptr %47, align 8
  %49 = load ptr, ptr %0, align 8
  %.not98 = icmp eq ptr %49, null
  br i1 %.not98, label %56, label %50

50:                                               ; preds = %44
  %51 = getelementptr inbounds i8, ptr %49, i64 16
  %52 = load i64, ptr %51, align 8
  %53 = add i64 %52, %48
  %54 = getelementptr inbounds i8, ptr %0, i64 8
  %55 = load i64, ptr %54, align 8
  %.not99 = icmp ult i64 %53, %55
  br i1 %.not99, label %57, label %56

56:                                               ; preds = %44, %50
  %.0 = phi i64 [ %48, %44 ], [ %53, %50 ]
  tail call void @smart_str_erealloc(ptr noundef nonnull %0, i64 noundef %.0) #14
  %.pre102 = load ptr, ptr %0, align 8
  %.phi.trans.insert103 = getelementptr inbounds i8, ptr %.pre102, i64 16
  %.pre104 = load i64, ptr %.phi.trans.insert103, align 8
  br label %57

57:                                               ; preds = %56, %50
  %58 = phi i64 [ %.pre104, %56 ], [ %52, %50 ]
  %59 = phi ptr [ %.pre102, %56 ], [ %49, %50 ]
  %.1 = phi i64 [ %.0, %56 ], [ %53, %50 ]
  %60 = getelementptr inbounds i8, ptr %59, i64 24
  %61 = getelementptr inbounds i8, ptr %60, i64 %58
  tail call void @llvm.memcpy.p0.p0.i64(ptr nonnull align 1 %61, ptr nonnull align 1 %46, i64 %48, i1 false)
  %62 = load ptr, ptr %0, align 8
  %63 = getelementptr inbounds i8, ptr %62, i64 16
  store i64 %.1, ptr %63, align 8
  br label %65

64:                                               ; preds = %6, %3
  tail call fastcc void @zend_ast_export_ex(ptr noundef %0, ptr noundef nonnull %1, i32 noundef 0, i32 noundef %2)
  br label %65

65:                                               ; preds = %64, %57
  ret void
}